target datalayout = "e-m:e-p270:32:32-p271:32:32-p272:64:64-i64:64-i128:128-f80:128-n8:16:32:64-S128"
target triple = "x86_64-pc-linux-gnu"

%struct.opj_jp2 = type { ptr, ptr, ptr, i32, i32, i32, i32, i32, i32, i32, i32, i32, i32, i32, i32, i32, i32, ptr, ptr, i64, i64, i32, i32, i32, %struct.opj_jp2_color, i32, i8, i8 }
%struct.opj_jp2_color = type { ptr, i32, ptr, ptr, i8 }
%struct.opj_jp2_pclr = type { ptr, ptr, ptr, ptr, i16, i8 }
%struct.opj_jp2_cdef = type { ptr, i16 }

; Function Attrs: nounwind uwtable
define hidden void @opj_jp2_destroy(ptr noundef %0) #0 {
  %2 = alloca ptr, align 8
  store ptr %0, ptr %2, align 8, !tbaa !3
  %3 = load ptr, ptr %2, align 8, !tbaa !3
  %4 = icmp ne ptr %3, null
  br i1 %4, label %5, label %198

5:                                                ; preds = %1
  %6 = load ptr, ptr %2, align 8, !tbaa !3
  %7 = getelementptr inbounds nuw %struct.opj_jp2, ptr %6, i32 0, i32 0
  %8 = load ptr, ptr %7, align 8, !tbaa !14
  call void @opj_j2k_destroy(ptr noundef %8)
  %9 = load ptr, ptr %2, align 8, !tbaa !3
  %10 = getelementptr inbounds nuw %struct.opj_jp2, ptr %9, i32 0, i32 0
  store ptr null, ptr %10, align 8, !tbaa !14
  %11 = load ptr, ptr %2, align 8, !tbaa !3
  %12 = getelementptr inbounds nuw %struct.opj_jp2, ptr %11, i32 0, i32 18
  %13 = load ptr, ptr %12, align 8, !tbaa !50
  %14 = icmp ne ptr %13, null
  br i1 %14, label %15, label %21

15:                                               ; preds = %5
  %16 = load ptr, ptr %2, align 8, !tbaa !3
  %17 = getelementptr inbounds nuw %struct.opj_jp2, ptr %16, i32 0, i32 18
  %18 = load ptr, ptr %17, align 8, !tbaa !50
  call void @opj_free(ptr noundef %18)
  %19 = load ptr, ptr %2, align 8, !tbaa !3
  %20 = getelementptr inbounds nuw %struct.opj_jp2, ptr %19, i32 0, i32 18
  store ptr null, ptr %20, align 8, !tbaa !50
  br label %21

21:                                               ; preds = %15, %5
  %22 = load ptr, ptr %2, align 8, !tbaa !3
  %23 = getelementptr inbounds nuw %struct.opj_jp2, ptr %22, i32 0, i32 17
  %24 = load ptr, ptr %23, align 8, !tbaa !48
  %25 = icmp ne ptr %24, null
  br i1 %25, label %26, label %32

26:                                               ; preds = %21
  %27 = load ptr, ptr %2, align 8, !tbaa !3
  %28 = getelementptr inbounds nuw %struct.opj_jp2, ptr %27, i32 0, i32 17
  %29 = load ptr, ptr %28, align 8, !tbaa !48
  call void @opj_free(ptr noundef %29)
  %30 = load ptr, ptr %2, align 8, !tbaa !3
  %31 = getelementptr inbounds nuw %struct.opj_jp2, ptr %30, i32 0, i32 17
  store ptr null, ptr %31, align 8, !tbaa !48
  br label %32

32:                                               ; preds = %26, %21
  %33 = load ptr, ptr %2, align 8, !tbaa !3
  %34 = getelementptr inbounds nuw %struct.opj_jp2, ptr %33, i32 0, i32 24
  %35 = getelementptr inbounds nuw %struct.opj_jp2_color, ptr %34, i32 0, i32 0
  %36 = load ptr, ptr %35, align 8, !tbaa !102
  %37 = icmp ne ptr %36, null
  br i1 %37, label %38, label %46

38:                                               ; preds = %32
  %39 = load ptr, ptr %2, align 8, !tbaa !3
  %40 = getelementptr inbounds nuw %struct.opj_jp2, ptr %39, i32 0, i32 24
  %41 = getelementptr inbounds nuw %struct.opj_jp2_color, ptr %40, i32 0, i32 0
  %42 = load ptr, ptr %41, align 8, !tbaa !102
  call void @opj_free(ptr noundef %42)
  %43 = load ptr, ptr %2, align 8, !tbaa !3
  %44 = getelementptr inbounds nuw %struct.opj_jp2, ptr %43, i32 0, i32 24
  %45 = getelementptr inbounds nuw %struct.opj_jp2_color, ptr %44, i32 0, i32 0
  store ptr null, ptr %45, align 8, !tbaa !102
  br label %46

46:                                               ; preds = %38, %32
  %47 = load ptr, ptr %2, align 8, !tbaa !3
  %48 = getelementptr inbounds nuw %struct.opj_jp2, ptr %47, i32 0, i32 24
  %49 = getelementptr inbounds nuw %struct.opj_jp2_color, ptr %48, i32 0, i32 2
  %50 = load ptr, ptr %49, align 8, !tbaa !33
  %51 = icmp ne ptr %50, null
  br i1 %51, label %52, label %80

52:                                               ; preds = %46
  %53 = load ptr, ptr %2, align 8, !tbaa !3
  %54 = getelementptr inbounds nuw %struct.opj_jp2, ptr %53, i32 0, i32 24
  %55 = getelementptr inbounds nuw %struct.opj_jp2_color, ptr %54, i32 0, i32 2
  %56 = load ptr, ptr %55, align 8, !tbaa !33
  %57 = getelementptr inbounds nuw %struct.opj_jp2_cdef, ptr %56, i32 0, i32 0
  %58 = load ptr, ptr %57, align 8, !tbaa !76
  %59 = icmp ne ptr %58, null
  br i1 %59, label %60, label %72

60:                                               ; preds = %52
  %61 = load ptr, ptr %2, align 8, !tbaa !3
  %62 = getelementptr inbounds nuw %struct.opj_jp2, ptr %61, i32 0, i32 24
  %63 = getelementptr inbounds nuw %struct.opj_jp2_color, ptr %62, i32 0, i32 2
  %64 = load ptr, ptr %63, align 8, !tbaa !33
  %65 = getelementptr inbounds nuw %struct.opj_jp2_cdef, ptr %64, i32 0, i32 0
  %66 = load ptr, ptr %65, align 8, !tbaa !76
  call void @opj_free(ptr noundef %66)
  %67 = load ptr, ptr %2, align 8, !tbaa !3
  %68 = getelementptr inbounds nuw %struct.opj_jp2, ptr %67, i32 0, i32 24
  %69 = getelementptr inbounds nuw %struct.opj_jp2_color, ptr %68, i32 0, i32 2
  %70 = load ptr, ptr %69, align 8, !tbaa !33
  %71 = getelementptr inbounds nuw %struct.opj_jp2_cdef, ptr %70, i32 0, i32 0
  store ptr null, ptr %71, align 8, !tbaa !76
  br label %72

72:                                               ; preds = %60, %52
  %73 = load ptr, ptr %2, align 8, !tbaa !3
  %74 = getelementptr inbounds nuw %struct.opj_jp2, ptr %73, i32 0, i32 24
  %75 = getelementptr inbounds nuw %struct.opj_jp2_color, ptr %74, i32 0, i32 2
  %76 = load ptr, ptr %75, align 8, !tbaa !33
  call void @opj_free(ptr noundef %76)
  %77 = load ptr, ptr %2, align 8, !tbaa !3
  %78 = getelementptr inbounds nuw %struct.opj_jp2, ptr %77, i32 0, i32 24
  %79 = getelementptr inbounds nuw %struct.opj_jp2_color, ptr %78, i32 0, i32 2
  store ptr null, ptr %79, align 8, !tbaa !33
  br label %80

80:                                               ; preds = %72, %46
  %81 = load ptr, ptr %2, align 8, !tbaa !3
  %82 = getelementptr inbounds nuw %struct.opj_jp2, ptr %81, i32 0, i32 24
  %83 = getelementptr inbounds nuw %struct.opj_jp2_color, ptr %82, i32 0, i32 3
  %84 = load ptr, ptr %83, align 8, !tbaa !28
  %85 = icmp ne ptr %84, null
  br i1 %85, label %86, label %174

86:                                               ; preds = %80
  %87 = load ptr, ptr %2, align 8, !tbaa !3
  %88 = getelementptr inbounds nuw %struct.opj_jp2, ptr %87, i32 0, i32 24
  %89 = getelementptr inbounds nuw %struct.opj_jp2_color, ptr %88, i32 0, i32 3
  %90 = load ptr, ptr %89, align 8, !tbaa !28
  %91 = getelementptr inbounds nuw %struct.opj_jp2_pclr, ptr %90, i32 0, i32 3
  %92 = load ptr, ptr %91, align 8, !tbaa !29
  %93 = icmp ne ptr %92, null
  br i1 %93, label %94, label %106

94:                                               ; preds = %86
  %95 = load ptr, ptr %2, align 8, !tbaa !3
  %96 = getelementptr inbounds nuw %struct.opj_jp2, ptr %95, i32 0, i32 24
  %97 = getelementptr inbounds nuw %struct.opj_jp2_color, ptr %96, i32 0, i32 3
  %98 = load ptr, ptr %97, align 8, !tbaa !28
  %99 = getelementptr inbounds nuw %struct.opj_jp2_pclr, ptr %98, i32 0, i32 3
  %100 = load ptr, ptr %99, align 8, !tbaa !29
  call void @opj_free(ptr noundef %100)
  %101 = load ptr, ptr %2, align 8, !tbaa !3
  %102 = getelementptr inbounds nuw %struct.opj_jp2, ptr %101, i32 0, i32 24
  %103 = getelementptr inbounds nuw %struct.opj_jp2_color, ptr %102, i32 0, i32 3
  %104 = load ptr, ptr %103, align 8, !tbaa !28
  %105 = getelementptr inbounds nuw %struct.opj_jp2_pclr, ptr %104, i32 0, i32 3
  store ptr null, ptr %105, align 8, !tbaa !29
  br label %106

106:                                              ; preds = %94, %86
  %107 = load ptr, ptr %2, align 8, !tbaa !3
  %108 = getelementptr inbounds nuw %struct.opj_jp2, ptr %107, i32 0, i32 24
  %109 = getelementptr inbounds nuw %struct.opj_jp2_color, ptr %108, i32 0, i32 3
  %110 = load ptr, ptr %109, align 8, !tbaa !28
  %111 = getelementptr inbounds nuw %struct.opj_jp2_pclr, ptr %110, i32 0, i32 1
  %112 = load ptr, ptr %111, align 8, !tbaa !107
  %113 = icmp ne ptr %112, null
  br i1 %113, label %114, label %126

114:                                              ; preds = %106
  %115 = load ptr, ptr %2, align 8, !tbaa !3
  %116 = getelementptr inbounds nuw %struct.opj_jp2, ptr %115, i32 0, i32 24
  %117 = getelementptr inbounds nuw %struct.opj_jp2_color, ptr %116, i32 0, i32 3
  %118 = load ptr, ptr %117, align 8, !tbaa !28
  %119 = getelementptr inbounds nuw %struct.opj_jp2_pclr, ptr %118, i32 0, i32 1
  %120 = load ptr, ptr %119, align 8, !tbaa !107
  call void @opj_free(ptr noundef %120)
  %121 = load ptr, ptr %2, align 8, !tbaa !3
  %122 = getelementptr inbounds nuw %struct.opj_jp2, ptr %121, i32 0, i32 24
  %123 = getelementptr inbounds nuw %struct.opj_jp2_color, ptr %122, i32 0, i32 3
  %124 = load ptr, ptr %123, align 8, !tbaa !28
  %125 = getelementptr inbounds nuw %struct.opj_jp2_pclr, ptr %124, i32 0, i32 1
  store ptr null, ptr %125, align 8, !tbaa !107
  br label %126

126:                                              ; preds = %114, %106
  %127 = load ptr, ptr %2, align 8, !tbaa !3
  %128 = getelementptr inbounds nuw %struct.opj_jp2, ptr %127, i32 0, i32 24
  %129 = getelementptr inbounds nuw %struct.opj_jp2_color, ptr %128, i32 0, i32 3
  %130 = load ptr, ptr %129, align 8, !tbaa !28
  %131 = getelementptr inbounds nuw %struct.opj_jp2_pclr, ptr %130, i32 0, i32 2
  %132 = load ptr, ptr %131, align 8, !tbaa !108
  %133 = icmp ne ptr %132, null
  br i1 %133, label %134, label %146

134:                                              ; preds = %126
  %135 = load ptr, ptr %2, align 8, !tbaa !3
  %136 = getelementptr inbounds nuw %struct.opj_jp2, ptr %135, i32 0, i32 24
  %137 = getelementptr inbounds nuw %struct.opj_jp2_color, ptr %136, i32 0, i32 3
  %138 = load ptr, ptr %137, align 8, !tbaa !28
  %139 = getelementptr inbounds nuw %struct.opj_jp2_pclr, ptr %138, i32 0, i32 2
  %140 = load ptr, ptr %139, align 8, !tbaa !108
  call void @opj_free(ptr noundef %140)
  %141 = load ptr, ptr %2, align 8, !tbaa !3
  %142 = getelementptr inbounds nuw %struct.opj_jp2, ptr %141, i32 0, i32 24
  %143 = getelementptr inbounds nuw %struct.opj_jp2_color, ptr %142, i32 0, i32 3
  %144 = load ptr, ptr %143, align 8, !tbaa !28
  %145 = getelementptr inbounds nuw %struct.opj_jp2_pclr, ptr %144, i32 0, i32 2
  store ptr null, ptr %145, align 8, !tbaa !108
  br label %146

146:                                              ; preds = %134, %126
  %147 = load ptr, ptr %2, align 8, !tbaa !3
  %148 = getelementptr inbounds nuw %struct.opj_jp2, ptr %147, i32 0, i32 24
  %149 = getelementptr inbounds nuw %struct.opj_jp2_color, ptr %148, i32 0, i32 3
  %150 = load ptr, ptr %149, align 8, !tbaa !28
  %151 = getelementptr inbounds nuw %struct.opj_jp2_pclr, ptr %150, i32 0, i32 0
  %152 = load ptr, ptr %151, align 8, !tbaa !109
  %153 = icmp ne ptr %152, null
  br i1 %153, label %154, label %166

154:                                              ; preds = %146
  %155 = load ptr, ptr %2, align 8, !tbaa !3
  %156 = getelementptr inbounds nuw %struct.opj_jp2, ptr %155, i32 0, i32 24
  %157 = getelementptr inbounds nuw %struct.opj_jp2_color, ptr %156, i32 0, i32 3
  %158 = load ptr, ptr %157, align 8, !tbaa !28
  %159 = getelementptr inbounds nuw %struct.opj_jp2_pclr, ptr %158, i32 0, i32 0
  %160 = load ptr, ptr %159, align 8, !tbaa !109
  call void @opj_free(ptr noundef %160)
  %161 = load ptr, ptr %2, align 8, !tbaa !3
  %162 = getelementptr inbounds nuw %struct.opj_jp2, ptr %161, i32 0, i32 24
  %163 = getelementptr inbounds nuw %struct.opj_jp2_color, ptr %162, i32 0, i32 3
  %164 = load ptr, ptr %163, align 8, !tbaa !28
  %165 = getelementptr inbounds nuw %struct.opj_jp2_pclr, ptr %164, i32 0, i32 0
  store ptr null, ptr %165, align 8, !tbaa !109
  br label %166

166:                                              ; preds = %154, %146
  %167 = load ptr, ptr %2, align 8, !tbaa !3
  %168 = getelementptr inbounds nuw %struct.opj_jp2, ptr %167, i32 0, i32 24
  %169 = getelementptr inbounds nuw %struct.opj_jp2_color, ptr %168, i32 0, i32 3
  %170 = load ptr, ptr %169, align 8, !tbaa !28
  call void @opj_free(ptr noundef %170)
  %171 = load ptr, ptr %2, align 8, !tbaa !3
  %172 = getelementptr inbounds nuw %struct.opj_jp2, ptr %171, i32 0, i32 24
  %173 = getelementptr inbounds nuw %struct.opj_jp2_color, ptr %172, i32 0, i32 3
  store ptr null, ptr %173, align 8, !tbaa !28
  br label %174

174:                                              ; preds = %166, %80
  %175 = load ptr, ptr %2, align 8, !tbaa !3
  %176 = getelementptr inbounds nuw %struct.opj_jp2, ptr %175, i32 0, i32 1
  %177 = load ptr, ptr %176, align 8, !tbaa !97
  %178 = icmp ne ptr %177, null
  br i1 %178, label %179, label %185

179:                                              ; preds = %174
  %180 = load ptr, ptr %2, align 8, !tbaa !3
  %181 = getelementptr inbounds nuw %struct.opj_jp2, ptr %180, i32 0, i32 1
  %182 = load ptr, ptr %181, align 8, !tbaa !97
  call void @opj_procedure_list_destroy(ptr noundef %182)
  %183 = load ptr, ptr %2, align 8, !tbaa !3
  %184 = getelementptr inbounds nuw %struct.opj_jp2, ptr %183, i32 0, i32 1
  store ptr null, ptr %184, align 8, !tbaa !97
  br label %185

185:                                              ; preds = %179, %174
  %186 = load ptr, ptr %2, align 8, !tbaa !3
  %187 = getelementptr inbounds nuw %struct.opj_jp2, ptr %186, i32 0, i32 2
  %188 = load ptr, ptr %187, align 8, !tbaa !91
  %189 = icmp ne ptr %188, null
  br i1 %189, label %190, label %196

190:                                              ; preds = %185
  %191 = load ptr, ptr %2, align 8, !tbaa !3
  %192 = getelementptr inbounds nuw %struct.opj_jp2, ptr %191, i32 0, i32 2
  %193 = load ptr, ptr %192, align 8, !tbaa !91
  call void @opj_procedure_list_destroy(ptr noundef %193)
  %194 = load ptr, ptr %2, align 8, !tbaa !3
  %195 = getelementptr inbounds nuw %struct.opj_jp2, ptr %194, i32 0, i32 2
  store ptr null, ptr %195, align 8, !tbaa !91
  br label %196

196:                                              ; preds = %190, %185
  %197 = load ptr, ptr %2, align 8, !tbaa !3
  call void @opj_free(ptr noundef %197)
  br label %198

198:                                              ; preds = %196, %1
  ret void
}