; Function Attrs: nounwind uwtable
define hidden void @opj_jp2_destroy(ptr noundef %0) local_unnamed_addr #0 {
  %.not = icmp eq ptr %0, null
  br i1 %.not, label %63, label %2

2:                                                ; preds = %1
  %3 = load ptr, ptr %0, align 8, !tbaa !3
  tail call void @opj_j2k_destroy(ptr noundef %3) #6
  store ptr null, ptr %0, align 8, !tbaa !3
  %4 = getelementptr inbounds nuw i8, ptr %0, i64 88
  %5 = load ptr, ptr %4, align 8, !tbaa !83
  %.not52 = icmp eq ptr %5, null
  br i1 %.not52, label %7, label %6

6:                                                ; preds = %2
  tail call void @opj_free(ptr noundef nonnull %5) #6
  store ptr null, ptr %4, align 8, !tbaa !83
  br label %7

7:                                                ; preds = %6, %2
  %8 = getelementptr inbounds nuw i8, ptr %0, i64 80
  %9 = load ptr, ptr %8, align 8, !tbaa !81
  %.not53 = icmp eq ptr %9, null
  br i1 %.not53, label %11, label %10

10:                                               ; preds = %7
  tail call void @opj_free(ptr noundef nonnull %9) #6
  store ptr null, ptr %8, align 8, !tbaa !81
  br label %11

11:                                               ; preds = %10, %7
  %12 = getelementptr inbounds nuw i8, ptr %0, i64 128
  %13 = load ptr, ptr %12, align 8, !tbaa !118
  %.not54 = icmp eq ptr %13, null
  br i1 %.not54, label %15, label %14

14:                                               ; preds = %11
  tail call void @opj_free(ptr noundef nonnull %13) #6
  store ptr null, ptr %12, align 8, !tbaa !118
  br label %15

15:                                               ; preds = %14, %11
  %16 = getelementptr inbounds nuw i8, ptr %0, i64 144
  %17 = load ptr, ptr %16, align 8, !tbaa !70
  %.not55 = icmp eq ptr %17, null
  br i1 %.not55, label %24, label %18

18:                                               ; preds = %15
  %19 = load ptr, ptr %17, align 8, !tbaa !22
  %.not56 = icmp eq ptr %19, null
  br i1 %.not56, label %22, label %20

20:                                               ; preds = %18
  tail call void @opj_free(ptr noundef nonnull %19) #6
  %21 = load ptr, ptr %16, align 8, !tbaa !70
  store ptr null, ptr %21, align 8, !tbaa !22
  br label %22

22:                                               ; preds = %20, %18
  %23 = phi ptr [ %21, %20 ], [ %17, %18 ]
  tail call void @opj_free(ptr noundef nonnull %23) #6
  store ptr null, ptr %16, align 8, !tbaa !70
  br label %24

24:                                               ; preds = %22, %15
  %25 = getelementptr inbounds nuw i8, ptr %0, i64 152
  %26 = load ptr, ptr %25, align 8, !tbaa !51
  %.not57 = icmp eq ptr %26, null
  br i1 %.not57, label %54, label %27

27:                                               ; preds = %24
  %28 = getelementptr inbounds nuw i8, ptr %26, i64 24
  %29 = load ptr, ptr %28, align 8, !tbaa !30
  %.not58 = icmp eq ptr %29, null
  br i1 %.not58, label %33, label %30

30:                                               ; preds = %27
  tail call void @opj_free(ptr noundef nonnull %29) #6
  %31 = load ptr, ptr %25, align 8, !tbaa !51
  %32 = getelementptr inbounds nuw i8, ptr %31, i64 24
  store ptr null, ptr %32, align 8, !tbaa !30
  br label %33

33:                                               ; preds = %30, %27
  %34 = phi ptr [ %31, %30 ], [ %26, %27 ]
  %35 = getelementptr inbounds nuw i8, ptr %34, i64 8
  %36 = load ptr, ptr %35, align 8, !tbaa !52
  %.not59 = icmp eq ptr %36, null
  br i1 %.not59, label %40, label %37

37:                                               ; preds = %33
  tail call void @opj_free(ptr noundef nonnull %36) #6
  %38 = load ptr, ptr %25, align 8, !tbaa !51
  %39 = getelementptr inbounds nuw i8, ptr %38, i64 8
  store ptr null, ptr %39, align 8, !tbaa !52
  br label %40

40:                                               ; preds = %37, %33
  %41 = phi ptr [ %38, %37 ], [ %34, %33 ]
  %42 = getelementptr inbounds nuw i8, ptr %41, i64 16
  %43 = load ptr, ptr %42, align 8, !tbaa !53
  %.not60 = icmp eq ptr %43, null
  br i1 %.not60, label %47, label %44

44:                                               ; preds = %40
  tail call void @opj_free(ptr noundef nonnull %43) #6
  %45 = load ptr, ptr %25, align 8, !tbaa !51
  %46 = getelementptr inbounds nuw i8, ptr %45, i64 16
  store ptr null, ptr %46, align 8, !tbaa !53
  br label %47

47:                                               ; preds = %44, %40
  %48 = phi ptr [ %45, %44 ], [ %41, %40 ]
  %49 = load ptr, ptr %48, align 8, !tbaa !54
  %.not61 = icmp eq ptr %49, null
  br i1 %.not61, label %52, label %50

50:                                               ; preds = %47
  tail call void @opj_free(ptr noundef nonnull %49) #6
  %51 = load ptr, ptr %25, align 8, !tbaa !51
  store ptr null, ptr %51, align 8, !tbaa !54
  br label %52

52:                                               ; preds = %50, %47
  %53 = phi ptr [ %51, %50 ], [ %48, %47 ]
  tail call void @opj_free(ptr noundef nonnull %53) #6
  store ptr null, ptr %25, align 8, !tbaa !51
  br label %54

54:                                               ; preds = %52, %24
  %55 = getelementptr inbounds nuw i8, ptr %0, i64 8
  %56 = load ptr, ptr %55, align 8, !tbaa !113
  %.not62 = icmp eq ptr %56, null
  br i1 %.not62, label %58, label %57

57:                                               ; preds = %54
  tail call void @opj_procedure_list_destroy(ptr noundef nonnull %56) #6
  store ptr null, ptr %55, align 8, !tbaa !113
  br label %58

58:                                               ; preds = %57, %54
  %59 = getelementptr inbounds nuw i8, ptr %0, i64 16
  %60 = load ptr, ptr %59, align 8, !tbaa !110
  %.not63 = icmp eq ptr %60, null
  br i1 %.not63, label %62, label %61

61:                                               ; preds = %58
  tail call void @opj_procedure_list_destroy(ptr noundef nonnull %60) #6
  store ptr null, ptr %59, align 8, !tbaa !110
  br label %62

62:                                               ; preds = %61, %58
  tail call void @opj_free(ptr noundef nonnull %0) #6
  br label %63

63:                                               ; preds = %62, %1
  ret void
}